; Function Attrs: nounwind uwtable
define internal ptr @codec_incrementalencoder(ptr readnone captures(none) %0, ptr noundef %1) #0 {
  %3 = alloca ptr, align 8
  %4 = alloca ptr, align 8
  call void @llvm.lifetime.start.p0(i64 8, ptr nonnull %3) #4
  call void @llvm.lifetime.start.p0(i64 8, ptr nonnull %4) #4
  store ptr null, ptr %4, align 8, !tbaa !3
  %5 = call i32 (ptr, ptr, ...) @PyArg_ParseTuple(ptr noundef %1, ptr noundef nonnull @.str.80, ptr noundef nonnull %3, ptr noundef nonnull %4) #4
  %.not = icmp eq i32 %5, 0
  br i1 %.not, label %10, label %6

6:                                                ; preds = %2
  %7 = load ptr, ptr %3, align 8, !tbaa !3
  %8 = load ptr, ptr %4, align 8, !tbaa !3
  %9 = call ptr @PyCodec_IncrementalEncoder(ptr noundef %7, ptr noundef %8) #4
  br label %10

10:                                               ; preds = %2, %6
  %.0 = phi ptr [ %9, %6 ], [ null, %2 ]
  call void @llvm.lifetime.end.p0(i64 8, ptr nonnull %4) #4
  call void @llvm.lifetime.end.p0(i64 8, ptr nonnull %3) #4
  ret ptr %.0
}